; Function Attrs: mustprogress uwtable
define hidden noundef i32 @_ZN3sat4ddfw13external_flipEv(ptr noundef nonnull align 8 dereferenceable(434) %0) local_unnamed_addr #4 align 2 personality ptr @__gxx_personality_v0 {
  %2 = alloca double, align 8
  %3 = getelementptr inbounds nuw i8, ptr %0, i64 432
  %4 = load i8, ptr %3, align 8, !tbaa !89, !range !83, !noundef !84
  store i8 1, ptr %3, align 8, !tbaa !89
  call void @llvm.lifetime.start.p0(i64 8, ptr nonnull %2) #27
  store double 0.000000e+00, ptr %2, align 8, !tbaa !103
  %5 = invoke noundef i32 @_ZN3sat4ddfw8pick_varERd(ptr noundef nonnull align 8 dereferenceable(434) %0, ptr noundef nonnull align 8 dereferenceable(8) %2)
          to label %6 unwind label %28

6:                                                ; preds = %1
  %7 = load double, ptr %2, align 8, !tbaa !103
  %8 = icmp eq i32 %5, 2147483647
  br i1 %8, label %30, label %9

9:                                                ; preds = %6
  %10 = fcmp ogt double %7, 0.000000e+00
  br i1 %10, label %22, label %11

11:                                               ; preds = %9
  %12 = fcmp oeq double %7, 0.000000e+00
  br i1 %12, label %13, label %30

13:                                               ; preds = %11
  %14 = getelementptr inbounds nuw i8, ptr %0, i64 216
  %15 = load i32, ptr %14, align 8, !tbaa !87
  %16 = mul i32 %15, 214013
  %17 = add i32 %16, 2531011
  store i32 %17, ptr %14, align 8, !tbaa !87
  %18 = lshr i32 %17, 16
  %19 = trunc nuw i32 %18 to i16
  %.lhs.trunc.i = and i16 %19, 32767
  %20 = urem i16 %.lhs.trunc.i, 100
  %.zext.i = zext nneg i16 %20 to i32
  %21 = load i32, ptr %0, align 8, !tbaa !104
  %.not.i = icmp ult i32 %21, %.zext.i
  br i1 %.not.i, label %30, label %22

22:                                               ; preds = %13, %9
  invoke void @_ZN3sat4ddfw4flipEj(ptr noundef nonnull align 8 dereferenceable(434) %0, i32 noundef %5)
          to label %.noexc unwind label %28

.noexc:                                           ; preds = %22
  %23 = getelementptr inbounds nuw i8, ptr %0, i64 168
  %24 = load i32, ptr %23, align 8, !tbaa !97
  %25 = getelementptr inbounds nuw i8, ptr %0, i64 292
  %26 = load i32, ptr %25, align 4, !tbaa !52
  %.not7.i = icmp ugt i32 %24, %26
  br i1 %.not7.i, label %_ZN3sat4ddfw10apply_flipEjd.exit, label %27

27:                                               ; preds = %.noexc
  invoke void @_ZN3sat4ddfw16save_best_valuesEv(ptr noundef nonnull align 8 dereferenceable(434) %0)
          to label %_ZN3sat4ddfw10apply_flipEjd.exit unwind label %28

28:                                               ; preds = %27, %22, %30, %1
  %29 = landingpad { ptr, i32 }
          cleanup
  call void @llvm.lifetime.end.p0(i64 8, ptr nonnull %2) #27
  store i8 %4, ptr %3, align 8, !tbaa !89
  resume { ptr, i32 } %29

30:                                               ; preds = %6, %13, %11
  invoke void @_ZN3sat4ddfw13shift_weightsEv(ptr noundef nonnull align 8 dereferenceable(434) %0)
          to label %_ZN3sat4ddfw10apply_flipEjd.exit unwind label %28

_ZN3sat4ddfw10apply_flipEjd.exit:                 ; preds = %27, %.noexc, %30
  %.0 = phi i32 [ 2147483647, %30 ], [ %5, %.noexc ], [ %5, %27 ]
  call void @llvm.lifetime.end.p0(i64 8, ptr nonnull %2) #27
  store i8 %4, ptr %3, align 8, !tbaa !89
  ret i32 %.0
}